; Function Attrs: mustprogress nofree norecurse nosync nounwind willreturn memory(read, inaccessiblemem: none) uwtable
define i32 @Gia_ObjFanin1CopyRepr(ptr noundef readonly captures(none) %0, ptr noundef %1, ptr noundef readonly captures(none) %2) local_unnamed_addr #7 {
  %4 = getelementptr i8, ptr %0, i64 32
  %.val14 = load ptr, ptr %4, align 8, !tbaa !28
  %5 = ptrtoint ptr %1 to i64
  %6 = ptrtoint ptr %.val14 to i64
  %7 = sub i64 %5, %6
  %8 = sdiv exact i64 %7, 12
  %.val3.i = load i64, ptr %1, align 4
  %9 = lshr i64 %.val3.i, 32
  %10 = and i64 %9, 536870911
  %11 = sub nsw i64 %8, %10
  %sext = shl i64 %11, 32
  %12 = ashr exact i64 %sext, 30
  %13 = getelementptr inbounds i8, ptr %2, i64 %12
  %14 = load i32, ptr %13, align 4, !tbaa !29
  %15 = icmp eq i32 %14, -1
  br i1 %15, label %16, label %21

16:                                               ; preds = %3
  %17 = sub nsw i64 0, %10
  %18 = getelementptr inbounds %struct.Gia_Obj_t_, ptr %1, i64 %17, i32 1
  %19 = lshr i64 %.val3.i, 61
  %20 = trunc nuw nsw i64 %19 to i32
  br label %28

21:                                               ; preds = %3
  %22 = ashr i32 %14, 1
  %23 = sext i32 %22 to i64
  %24 = getelementptr %struct.Gia_Obj_t_, ptr %.val14, i64 %23, i32 1
  %25 = lshr i64 %.val3.i, 61
  %26 = trunc nuw nsw i64 %25 to i32
  %27 = xor i32 %14, %26
  br label %28

28:                                               ; preds = %21, %16
  %.sink15 = phi i32 [ %27, %21 ], [ %20, %16 ]
  %.val13.sink.in = phi ptr [ %24, %21 ], [ %18, %16 ]
  %.val13.sink = load i32, ptr %.val13.sink.in, align 4, !tbaa !48
  %29 = and i32 %.sink15, 1
  %30 = xor i32 %.val13.sink, %29
  ret i32 %30
}